target datalayout = "e-m:e-p270:32:32-p271:32:32-p272:64:64-i64:64-i128:128-f80:128-n8:16:32:64-S128"
target triple = "x86_64-pc-linux-gnu"

@.str = private unnamed_addr constant [66 x i8] c"Usage: %s [topology options] [options] <location> -- command ...\0A\00", align 1
@.str.1 = private unnamed_addr constant [65 x i8] c" <location> may be a space-separated list of cpusets or objects\0A\00", align 1
@.str.2 = private unnamed_addr constant [58 x i8] c"            as supported by the hwloc-calc utility, e.g:\0A\00", align 1
@.str.3 = private unnamed_addr constant [52 x i8] c"Input topology options (must be at the beginning):\0A\00", align 1
@.str.4 = private unnamed_addr constant [49 x i8] c"  --no-smt       Only keep a single PU per core\0A\00", align 1
@.str.5 = private unnamed_addr constant [33 x i8] c"  --restrict [nodeset=]<bitmap>\0A\00", align 1
@.str.6 = private unnamed_addr constant [74 x i8] c"                 Restrict the topology to some processors or NUMA nodes.\0A\00", align 1
@.str.7 = private unnamed_addr constant [66 x i8] c"  --restrict-flags <n>  Set the flags to be used during restrict\0A\00", align 1
@.str.8 = private unnamed_addr constant [75 x i8] c"  --disallowed   Include objects disallowed by administrative limitations\0A\00", align 1
@.str.9 = private unnamed_addr constant [60 x i8] c"  --hbm          Only consider high bandwidth memory nodes\0A\00", align 1
@.str.10 = private unnamed_addr constant [53 x i8] c"  --no-hbm       Ignore high-bandwidth memory nodes\0A\00", align 1
@.str.11 = private unnamed_addr constant [10 x i8] c"Options:\0A\00", align 1
@.str.12 = private unnamed_addr constant [68 x i8] c"  --cpubind      Use following arguments for cpu binding (default)\0A\00", align 1
@.str.13 = private unnamed_addr constant [61 x i8] c"  --membind      Use following arguments for memory binding\0A\00", align 1
@.str.14 = private unnamed_addr constant [143 x i8] c"  --mempolicy <default|firsttouch|bind|interleave|weighted|nexttouch>\0A                 Change policy that --membind applies (default is bind)\0A\00", align 1
@.str.15 = private unnamed_addr constant [25 x i8] c"  --best-memattr <attr>\0A\00", align 1
@.str.16 = private unnamed_addr constant [74 x i8] c"                 Select the best target node in the given memory binding\0A\00", align 1
@.str.17 = private unnamed_addr constant [56 x i8] c"  -l --logical   Take logical object indexes (default)\0A\00", align 1
@.str.18 = private unnamed_addr constant [47 x i8] c"  -p --physical  Take physical object indexes\0A\00", align 1
@.str.19 = private unnamed_addr constant [60 x i8] c"  --single       Bind on a single CPU to prevent migration\0A\00", align 1
@.str.20 = private unnamed_addr constant [41 x i8] c"  --strict       Require strict binding\0A\00", align 1
@.str.21 = private unnamed_addr constant [51 x i8] c"  --get          Retrieve current process binding\0A\00", align 1
@.str.22 = private unnamed_addr constant [106 x i8] c"  -e --get-last-cpu-location\0A                 Retrieve the last processors where the current process ran\0A\00", align 1
@.str.23 = private unnamed_addr constant [58 x i8] c"  --nodeset      Display (and parse) cpusets as nodesets\0A\00", align 1
@.str.24 = private unnamed_addr constant [43 x i8] c"  --pid <pid>    Operate on process <pid>\0A\00", align 1
@.str.25 = private unnamed_addr constant [42 x i8] c"  --tid <tid>    Operate on thread <tid>\0A\00", align 1
@.str.26 = private unnamed_addr constant [129 x i8] c"  --cpuset-output-format <hwloc|list|taskset>\0A  --cof <hwloc|list|taskset>\0A                 Change the format of cpuset outputs\0A\00", align 1
@.str.27 = private unnamed_addr constant [24 x i8] c"Miscellaneous options:\0A\00", align 1
@.str.28 = private unnamed_addr constant [60 x i8] c"  -f --force     Launch the command even if binding failed\0A\00", align 1
@.str.29 = private unnamed_addr constant [48 x i8] c"  -q --quiet     Hide non-fatal error messages\0A\00", align 1
@.str.30 = private unnamed_addr constant [40 x i8] c"  -v --verbose   Show verbose messages\0A\00", align 1
@.str.31 = private unnamed_addr constant [42 x i8] c"  --version      Report version and exit\0A\00", align 1
@.str.32 = private unnamed_addr constant [34 x i8] c"  -h --help      Show this usage\0A\00", align 1
@.str.123 = private unnamed_addr constant [52 x i8] c"    core:2-3        for the third and fourth cores\0A\00", align 1
@.str.124 = private unnamed_addr constant [60 x i8] c"    node:1.pu:2       the third PU of the second NUMA node\0A\00", align 1
@.str.125 = private unnamed_addr constant [56 x i8] c"    0x12345678        a CPU set given a bitmask string\0A\00", align 1
@.str.126 = private unnamed_addr constant [62 x i8] c"    os=eth0           the operating system device named eth0\0A\00", align 1
@.str.127 = private unnamed_addr constant [60 x i8] c"    pci=0000:01:02.0  the PCI device with the given bus ID\0A\00", align 1
@.str.128 = private unnamed_addr constant [61 x i8] c"  with prefix ~ to remove, ^ for xor and x for intersection\0A\00", align 1
@.str.129 = private unnamed_addr constant [57 x i8] c"  (see Location Specification in hwloc(7) for details).\0A\00", align 1

; Function Attrs: inlinehint nounwind uwtable
define internal void @hwloc_calc_locations_usage(ptr noundef %0) #2 {
  %2 = alloca ptr, align 8
  store ptr %0, ptr %2, align 8, !tbaa !9
  %3 = load ptr, ptr %2, align 8, !tbaa !9
  %4 = call i32 (ptr, ptr, ...) @fprintf(ptr noundef %3, ptr noundef @.str.123) #11
  %5 = load ptr, ptr %2, align 8, !tbaa !9
  %6 = call i32 (ptr, ptr, ...) @fprintf(ptr noundef %5, ptr noundef @.str.124) #11
  %7 = load ptr, ptr %2, align 8, !tbaa !9
  %8 = call i32 (ptr, ptr, ...) @fprintf(ptr noundef %7, ptr noundef @.str.125) #11
  %9 = load ptr, ptr %2, align 8, !tbaa !9
  %10 = call i32 (ptr, ptr, ...) @fprintf(ptr noundef %9, ptr noundef @.str.126) #11
  %11 = load ptr, ptr %2, align 8, !tbaa !9
  %12 = call i32 (ptr, ptr, ...) @fprintf(ptr noundef %11, ptr noundef @.str.127) #11
  %13 = load ptr, ptr %2, align 8, !tbaa !9
  %14 = call i32 (ptr, ptr, ...) @fprintf(ptr noundef %13, ptr noundef @.str.128) #11
  %15 = load ptr, ptr %2, align 8, !tbaa !9
  %16 = call i32 (ptr, ptr, ...) @fprintf(ptr noundef %15, ptr noundef @.str.129) #11
  ret void
}

; Function Attrs: nounwind uwtable
define hidden void @usage(ptr noundef %0, ptr noundef %1) #0 {
  %3 = alloca ptr, align 8
  %4 = alloca ptr, align 8
  store ptr %0, ptr %3, align 8, !tbaa !4
  store ptr %1, ptr %4, align 8, !tbaa !9
  %5 = load ptr, ptr %4, align 8, !tbaa !9
  %6 = load ptr, ptr %3, align 8, !tbaa !4
  %7 = call i32 (ptr, ptr, ...) @fprintf(ptr noundef %5, ptr noundef @.str, ptr noundef %6) #11
  %8 = load ptr, ptr %4, align 8, !tbaa !9
  %9 = call i32 (ptr, ptr, ...) @fprintf(ptr noundef %8, ptr noundef @.str.1) #11
  %10 = load ptr, ptr %4, align 8, !tbaa !9
  %11 = call i32 (ptr, ptr, ...) @fprintf(ptr noundef %10, ptr noundef @.str.2) #11
  %12 = load ptr, ptr %4, align 8, !tbaa !9
  call void @hwloc_calc_locations_usage(ptr noundef %12)
  %13 = load ptr, ptr %4, align 8, !tbaa !9
  %14 = call i32 (ptr, ptr, ...) @fprintf(ptr noundef %13, ptr noundef @.str.3) #11
  %15 = load ptr, ptr %4, align 8, !tbaa !9
  %16 = call i32 (ptr, ptr, ...) @fprintf(ptr noundef %15, ptr noundef @.str.4) #11
  %17 = load ptr, ptr %4, align 8, !tbaa !9
  %18 = call i32 (ptr, ptr, ...) @fprintf(ptr noundef %17, ptr noundef @.str.5) #11
  %19 = load ptr, ptr %4, align 8, !tbaa !9
  %20 = call i32 (ptr, ptr, ...) @fprintf(ptr noundef %19, ptr noundef @.str.6) #11
  %21 = load ptr, ptr %4, align 8, !tbaa !9
  %22 = call i32 (ptr, ptr, ...) @fprintf(ptr noundef %21, ptr noundef @.str.7) #11
  %23 = load ptr, ptr %4, align 8, !tbaa !9
  %24 = call i32 (ptr, ptr, ...) @fprintf(ptr noundef %23, ptr noundef @.str.8) #11
  %25 = load ptr, ptr %4, align 8, !tbaa !9
  %26 = call i32 (ptr, ptr, ...) @fprintf(ptr noundef %25, ptr noundef @.str.9) #11
  %27 = load ptr, ptr %4, align 8, !tbaa !9
  %28 = call i32 (ptr, ptr, ...) @fprintf(ptr noundef %27, ptr noundef @.str.10) #11
  %29 = load ptr, ptr %4, align 8, !tbaa !9
  %30 = call i32 (ptr, ptr, ...) @fprintf(ptr noundef %29, ptr noundef @.str.11) #11
  %31 = load ptr, ptr %4, align 8, !tbaa !9
  %32 = call i32 (ptr, ptr, ...) @fprintf(ptr noundef %31, ptr noundef @.str.12) #11
  %33 = load ptr, ptr %4, align 8, !tbaa !9
  %34 = call i32 (ptr, ptr, ...) @fprintf(ptr noundef %33, ptr noundef @.str.13) #11
  %35 = load ptr, ptr %4, align 8, !tbaa !9
  %36 = call i32 (ptr, ptr, ...) @fprintf(ptr noundef %35, ptr noundef @.str.14) #11
  %37 = load ptr, ptr %4, align 8, !tbaa !9
  %38 = call i32 (ptr, ptr, ...) @fprintf(ptr noundef %37, ptr noundef @.str.15) #11
  %39 = load ptr, ptr %4, align 8, !tbaa !9
  %40 = call i32 (ptr, ptr, ...) @fprintf(ptr noundef %39, ptr noundef @.str.16) #11
  %41 = load ptr, ptr %4, align 8, !tbaa !9
  %42 = call i32 (ptr, ptr, ...) @fprintf(ptr noundef %41, ptr noundef @.str.17) #11
  %43 = load ptr, ptr %4, align 8, !tbaa !9
  %44 = call i32 (ptr, ptr, ...) @fprintf(ptr noundef %43, ptr noundef @.str.18) #11
  %45 = load ptr, ptr %4, align 8, !tbaa !9
  %46 = call i32 (ptr, ptr, ...) @fprintf(ptr noundef %45, ptr noundef @.str.19) #11
  %47 = load ptr, ptr %4, align 8, !tbaa !9
  %48 = call i32 (ptr, ptr, ...) @fprintf(ptr noundef %47, ptr noundef @.str.20) #11
  %49 = load ptr, ptr %4, align 8, !tbaa !9
  %50 = call i32 (ptr, ptr, ...) @fprintf(ptr noundef %49, ptr noundef @.str.21) #11
  %51 = load ptr, ptr %4, align 8, !tbaa !9
  %52 = call i32 (ptr, ptr, ...) @fprintf(ptr noundef %51, ptr noundef @.str.22) #11
  %53 = load ptr, ptr %4, align 8, !tbaa !9
  %54 = call i32 (ptr, ptr, ...) @fprintf(ptr noundef %53, ptr noundef @.str.23) #11
  %55 = load ptr, ptr %4, align 8, !tbaa !9
  %56 = call i32 (ptr, ptr, ...) @fprintf(ptr noundef %55, ptr noundef @.str.24) #11
  %57 = load ptr, ptr %4, align 8, !tbaa !9
  %58 = call i32 (ptr, ptr, ...) @fprintf(ptr noundef %57, ptr noundef @.str.25) #11
  %59 = load ptr, ptr %4, align 8, !tbaa !9
  %60 = call i32 (ptr, ptr, ...) @fprintf(ptr noundef %59, ptr noundef @.str.26) #11
  %61 = load ptr, ptr %4, align 8, !tbaa !9
  %62 = call i32 (ptr, ptr, ...) @fprintf(ptr noundef %61, ptr noundef @.str.27) #11
  %63 = load ptr, ptr %4, align 8, !tbaa !9
  %64 = call i32 (ptr, ptr, ...) @fprintf(ptr noundef %63, ptr noundef @.str.28) #11
  %65 = load ptr, ptr %4, align 8, !tbaa !9
  %66 = call i32 (ptr, ptr, ...) @fprintf(ptr noundef %65, ptr noundef @.str.29) #11
  %67 = load ptr, ptr %4, align 8, !tbaa !9
  %68 = call i32 (ptr, ptr, ...) @fprintf(ptr noundef %67, ptr noundef @.str.30) #11
  %69 = load ptr, ptr %4, align 8, !tbaa !9
  %70 = call i32 (ptr, ptr, ...) @fprintf(ptr noundef %69, ptr noundef @.str.31) #11
  %71 = load ptr, ptr %4, align 8, !tbaa !9
  %72 = call i32 (ptr, ptr, ...) @fprintf(ptr noundef %71, ptr noundef @.str.32) #11
  ret void
}