; Function Attrs: nofree nounwind uwtable
define hidden void @usage(ptr noundef %0, ptr noundef captures(none) %1) local_unnamed_addr #0 {
  %3 = tail call i32 (ptr, ptr, ...) @fprintf(ptr noundef %1, ptr noundef nonnull @.str, ptr noundef %0) #25
  %4 = tail call i64 @fwrite(ptr nonnull @.str.1, i64 64, i64 1, ptr %1)
  %5 = tail call i64 @fwrite(ptr nonnull @.str.2, i64 57, i64 1, ptr %1)
  %6 = tail call i64 @fwrite(ptr nonnull @.str.123, i64 51, i64 1, ptr %1)
  %7 = tail call i64 @fwrite(ptr nonnull @.str.124, i64 59, i64 1, ptr %1)
  %8 = tail call i64 @fwrite(ptr nonnull @.str.125, i64 55, i64 1, ptr %1)
  %9 = tail call i64 @fwrite(ptr nonnull @.str.126, i64 61, i64 1, ptr %1)
  %10 = tail call i64 @fwrite(ptr nonnull @.str.127, i64 59, i64 1, ptr %1)
  %11 = tail call i64 @fwrite(ptr nonnull @.str.128, i64 60, i64 1, ptr %1)
  %12 = tail call i64 @fwrite(ptr nonnull @.str.129, i64 56, i64 1, ptr %1)
  %13 = tail call i64 @fwrite(ptr nonnull @.str.3, i64 51, i64 1, ptr %1)
  %14 = tail call i64 @fwrite(ptr nonnull @.str.4, i64 48, i64 1, ptr %1)
  %15 = tail call i64 @fwrite(ptr nonnull @.str.5, i64 32, i64 1, ptr %1)
  %16 = tail call i64 @fwrite(ptr nonnull @.str.6, i64 73, i64 1, ptr %1)
  %17 = tail call i64 @fwrite(ptr nonnull @.str.7, i64 65, i64 1, ptr %1)
  %18 = tail call i64 @fwrite(ptr nonnull @.str.8, i64 74, i64 1, ptr %1)
  %19 = tail call i64 @fwrite(ptr nonnull @.str.9, i64 59, i64 1, ptr %1)
  %20 = tail call i64 @fwrite(ptr nonnull @.str.10, i64 52, i64 1, ptr %1)
  %21 = tail call i64 @fwrite(ptr nonnull @.str.11, i64 9, i64 1, ptr %1)
  %22 = tail call i64 @fwrite(ptr nonnull @.str.12, i64 67, i64 1, ptr %1)
  %23 = tail call i64 @fwrite(ptr nonnull @.str.13, i64 60, i64 1, ptr %1)
  %24 = tail call i64 @fwrite(ptr nonnull @.str.14, i64 142, i64 1, ptr %1)
  %25 = tail call i64 @fwrite(ptr nonnull @.str.15, i64 24, i64 1, ptr %1)
  %26 = tail call i64 @fwrite(ptr nonnull @.str.16, i64 73, i64 1, ptr %1)
  %27 = tail call i64 @fwrite(ptr nonnull @.str.17, i64 55, i64 1, ptr %1)
  %28 = tail call i64 @fwrite(ptr nonnull @.str.18, i64 46, i64 1, ptr %1)
  %29 = tail call i64 @fwrite(ptr nonnull @.str.19, i64 59, i64 1, ptr %1)
  %30 = tail call i64 @fwrite(ptr nonnull @.str.20, i64 40, i64 1, ptr %1)
  %31 = tail call i64 @fwrite(ptr nonnull @.str.21, i64 50, i64 1, ptr %1)
  %32 = tail call i64 @fwrite(ptr nonnull @.str.22, i64 105, i64 1, ptr %1)
  %33 = tail call i64 @fwrite(ptr nonnull @.str.23, i64 57, i64 1, ptr %1)
  %34 = tail call i64 @fwrite(ptr nonnull @.str.24, i64 42, i64 1, ptr %1)
  %35 = tail call i64 @fwrite(ptr nonnull @.str.25, i64 41, i64 1, ptr %1)
  %36 = tail call i64 @fwrite(ptr nonnull @.str.26, i64 128, i64 1, ptr %1)
  %37 = tail call i64 @fwrite(ptr nonnull @.str.27, i64 23, i64 1, ptr %1)
  %38 = tail call i64 @fwrite(ptr nonnull @.str.28, i64 59, i64 1, ptr %1)
  %39 = tail call i64 @fwrite(ptr nonnull @.str.29, i64 47, i64 1, ptr %1)
  %40 = tail call i64 @fwrite(ptr nonnull @.str.30, i64 39, i64 1, ptr %1)
  %41 = tail call i64 @fwrite(ptr nonnull @.str.31, i64 41, i64 1, ptr %1)
  %42 = tail call i64 @fwrite(ptr nonnull @.str.32, i64 33, i64 1, ptr %1)
  ret void
}